target datalayout = "e-m:e-p270:32:32-p271:32:32-p272:64:64-i64:64-i128:128-f80:128-n8:16:32:64-S128"
target triple = "x86_64-pc-linux-gnu"

%class.duDisplayList = type <{ %struct.duDebugDraw, ptr, ptr, i32, i32, i32, float, i8, [7 x i8] }>
%struct.duDebugDraw = type { ptr }

; Function Attrs: mustprogress nounwind uwtable
define void @_ZN11duDebugDrawD2Ev(ptr noundef nonnull align 8 dereferenceable(8) %0) unnamed_addr #0 align 2 {
  %2 = alloca ptr, align 8
  store ptr %0, ptr %2, align 8
  ret void
}

; Function Attrs: mustprogress nounwind uwtable
define void @_ZN13duDisplayListD2Ev(ptr noundef nonnull align 8 dereferenceable(41) %0) unnamed_addr #0 align 2 {
  %2 = alloca ptr, align 8
  store ptr %0, ptr %2, align 8
  %3 = load ptr, ptr %2, align 8
  store ptr getelementptr inbounds ({ [13 x ptr] }, ptr @_ZTV13duDisplayList, i32 0, i32 0, i32 2), ptr %3, align 8
  %4 = getelementptr inbounds %class.duDisplayList, ptr %3, i32 0, i32 1
  %5 = load ptr, ptr %4, align 8
  %6 = icmp eq ptr %5, null
  br i1 %6, label %8, label %7

7:                                                ; preds = %1
  call void @_ZdaPv(ptr noundef %5) #11
  br label %8

8:                                                ; preds = %7, %1
  %9 = getelementptr inbounds %class.duDisplayList, ptr %3, i32 0, i32 2
  %10 = load ptr, ptr %9, align 8
  %11 = icmp eq ptr %10, null
  br i1 %11, label %13, label %12

12:                                               ; preds = %8
  call void @_ZdaPv(ptr noundef %10) #11
  br label %13

13:                                               ; preds = %12, %8
  call void @_ZN11duDebugDrawD2Ev(ptr noundef nonnull align 8 dereferenceable(8) %3) #9
  ret void
}