; Function Attrs: mustprogress nounwind uwtable
define void @_ZN13duDisplayListD2Ev(ptr nocapture noundef nonnull align 8 dereferenceable(41) %0) unnamed_addr #8 align 2 {
  store ptr getelementptr inbounds ({ [13 x ptr] }, ptr @_ZTV13duDisplayList, i64 0, i32 0, i64 2), ptr %0, align 8
  %2 = getelementptr inbounds i8, ptr %0, i64 8
  %3 = load ptr, ptr %2, align 8
  %4 = icmp eq ptr %3, null
  br i1 %4, label %6, label %5

5:                                                ; preds = %1
  tail call void @_ZdaPv(ptr noundef nonnull %3) #17
  br label %6

6:                                                ; preds = %5, %1
  %7 = getelementptr inbounds i8, ptr %0, i64 16
  %8 = load ptr, ptr %7, align 8
  %9 = icmp eq ptr %8, null
  br i1 %9, label %11, label %10

10:                                               ; preds = %6
  tail call void @_ZdaPv(ptr noundef nonnull %8) #17
  br label %11

11:                                               ; preds = %10, %6
  ret void
}